; Function Attrs: mustprogress uwtable
define hidden void @_ZN4cvc58internal12TheoryEngine9postsolveENS0_4prop8SatValueE(ptr nocapture noundef nonnull align 8 dereferenceable(1448) %this, i32 noundef %result) local_unnamed_addr #3 align 2 {
entry:
  %d_modules = getelementptr inbounds i8, ptr %this, i64 1424
  %0 = load ptr, ptr %d_modules, align 8
  %_M_finish.i = getelementptr inbounds i8, ptr %this, i64 1432
  %1 = load ptr, ptr %_M_finish.i, align 8
  %cmp.i.not4 = icmp eq ptr %0, %1
  br i1 %cmp.i.not4, label %for.end, label %for.body

for.body:                                         ; preds = %entry, %for.body
  %__begin2.sroa.0.05 = phi ptr [ %incdec.ptr.i, %for.body ], [ %0, %entry ]
  %2 = load ptr, ptr %__begin2.sroa.0.05, align 8
  %vtable = load ptr, ptr %2, align 8
  %vfn = getelementptr inbounds i8, ptr %vtable, i64 24
  %3 = load ptr, ptr %vfn, align 8
  tail call void %3(ptr noundef nonnull align 8 dereferenceable(152) %2, i32 noundef %result)
  %incdec.ptr.i = getelementptr inbounds i8, ptr %__begin2.sroa.0.05, i64 8
  %cmp.i.not = icmp eq ptr %incdec.ptr.i, %1
  br i1 %cmp.i.not, label %for.end, label %for.body

for.end:                                          ; preds = %for.body, %entry
  %d_interrupted = getelementptr inbounds i8, ptr %this, i64 1272
  store i8 0, ptr %d_interrupted, align 8
  ret void
}